target datalayout = "e-m:e-p270:32:32-p271:32:32-p272:64:64-i64:64-i128:128-f80:128-n8:16:32:64-S128"
target triple = "x86_64-pc-linux-gnu"

%struct.AVFilterContext = type { ptr, ptr, ptr, ptr, ptr, i32, ptr, ptr, i32, ptr, ptr, i32, i32, ptr, ptr, ptr, ptr, i32, ptr, i32, i32 }
%struct.AudioIIRContext = type { ptr, ptr, ptr, ptr, double, double, double, i32, i32, i32, i32, i32, i32, i32, i32, %struct.AVRational, ptr, ptr, i32, i32, ptr }
%struct.AVRational = type { i32, i32 }
%struct.IIRChannel = type { [2 x i32], [2 x ptr], double, [2 x ptr], double, ptr, i32 }

; Function Attrs: cold nounwind optsize uwtable
define internal void @uninit(ptr noundef %0) #0 {
  %2 = alloca ptr, align 8
  %3 = alloca ptr, align 8
  %4 = alloca i32, align 4
  %5 = alloca ptr, align 8
  store ptr %0, ptr %2, align 8, !tbaa !4
  call void @llvm.lifetime.start.p0(i64 8, ptr %3) #12
  %6 = load ptr, ptr %2, align 8, !tbaa !4
  %7 = getelementptr inbounds nuw %struct.AVFilterContext, ptr %6, i32 0, i32 9
  %8 = load ptr, ptr %7, align 8, !tbaa !9
  store ptr %8, ptr %3, align 8, !tbaa !22
  call void @llvm.lifetime.start.p0(i64 4, ptr %4) #12
  %9 = load ptr, ptr %3, align 8, !tbaa !22
  %10 = getelementptr inbounds nuw %struct.AudioIIRContext, ptr %9, i32 0, i32 17
  %11 = load ptr, ptr %10, align 8, !tbaa !47
  %12 = icmp ne ptr %11, null
  br i1 %12, label %13, label %45

13:                                               ; preds = %1
  store i32 0, ptr %4, align 4, !tbaa !43
  br label %14

14:                                               ; preds = %41, %13
  %15 = load i32, ptr %4, align 4, !tbaa !43
  %16 = load ptr, ptr %3, align 8, !tbaa !22
  %17 = getelementptr inbounds nuw %struct.AudioIIRContext, ptr %16, i32 0, i32 18
  %18 = load i32, ptr %17, align 8, !tbaa !48
  %19 = icmp slt i32 %15, %18
  br i1 %19, label %20, label %44

20:                                               ; preds = %14
  call void @llvm.lifetime.start.p0(i64 8, ptr %5) #12
  %21 = load ptr, ptr %3, align 8, !tbaa !22
  %22 = getelementptr inbounds nuw %struct.AudioIIRContext, ptr %21, i32 0, i32 17
  %23 = load ptr, ptr %22, align 8, !tbaa !47
  %24 = load i32, ptr %4, align 4, !tbaa !43
  %25 = sext i32 %24 to i64
  %26 = getelementptr inbounds %struct.IIRChannel, ptr %23, i64 %25
  store ptr %26, ptr %5, align 8, !tbaa !49
  %27 = load ptr, ptr %5, align 8, !tbaa !49
  %28 = getelementptr inbounds nuw %struct.IIRChannel, ptr %27, i32 0, i32 1
  %29 = getelementptr inbounds [2 x ptr], ptr %28, i64 0, i64 0
  call void @av_freep(ptr noundef %29)
  %30 = load ptr, ptr %5, align 8, !tbaa !49
  %31 = getelementptr inbounds nuw %struct.IIRChannel, ptr %30, i32 0, i32 1
  %32 = getelementptr inbounds [2 x ptr], ptr %31, i64 0, i64 1
  call void @av_freep(ptr noundef %32)
  %33 = load ptr, ptr %5, align 8, !tbaa !49
  %34 = getelementptr inbounds nuw %struct.IIRChannel, ptr %33, i32 0, i32 3
  %35 = getelementptr inbounds [2 x ptr], ptr %34, i64 0, i64 0
  call void @av_freep(ptr noundef %35)
  %36 = load ptr, ptr %5, align 8, !tbaa !49
  %37 = getelementptr inbounds nuw %struct.IIRChannel, ptr %36, i32 0, i32 3
  %38 = getelementptr inbounds [2 x ptr], ptr %37, i64 0, i64 1
  call void @av_freep(ptr noundef %38)
  %39 = load ptr, ptr %5, align 8, !tbaa !49
  %40 = getelementptr inbounds nuw %struct.IIRChannel, ptr %39, i32 0, i32 5
  call void @av_freep(ptr noundef %40)
  call void @llvm.lifetime.end.p0(i64 8, ptr %5) #12
  br label %41

41:                                               ; preds = %20
  %42 = load i32, ptr %4, align 4, !tbaa !43
  %43 = add nsw i32 %42, 1
  store i32 %43, ptr %4, align 4, !tbaa !43
  br label %14, !llvm.loop !50

44:                                               ; preds = %14
  br label %45

45:                                               ; preds = %44, %1
  %46 = load ptr, ptr %3, align 8, !tbaa !22
  %47 = getelementptr inbounds nuw %struct.AudioIIRContext, ptr %46, i32 0, i32 17
  call void @av_freep(ptr noundef %47)
  %48 = load ptr, ptr %3, align 8, !tbaa !22
  %49 = getelementptr inbounds nuw %struct.AudioIIRContext, ptr %48, i32 0, i32 16
  call void @av_frame_free(ptr noundef %49)
  call void @llvm.lifetime.end.p0(i64 4, ptr %4) #12
  call void @llvm.lifetime.end.p0(i64 8, ptr %3) #12
  ret void
}