; Function Attrs: cold nounwind optsize uwtable
define internal void @uninit(ptr noundef readonly captures(none) %0) #0 {
  %2 = getelementptr inbounds nuw i8, ptr %0, i64 72
  %3 = load ptr, ptr %2, align 8, !tbaa !4
  %4 = getelementptr inbounds nuw i8, ptr %3, i64 104
  %5 = load ptr, ptr %4, align 8, !tbaa !34
  %.not = icmp eq ptr %5, null
  br i1 %.not, label %.loopexit, label %.preheader

.preheader:                                       ; preds = %1
  %6 = getelementptr inbounds nuw i8, ptr %3, i64 112
  %7 = load i32, ptr %6, align 8, !tbaa !35
  %8 = icmp sgt i32 %7, 0
  br i1 %8, label %.lr.ph, label %.loopexit

.lr.ph:                                           ; preds = %.preheader, %.lr.ph
  %indvars.iv = phi i64 [ %indvars.iv.next, %.lr.ph ], [ 0, %.preheader ]
  %9 = load ptr, ptr %4, align 8, !tbaa !34
  %10 = getelementptr inbounds nuw %struct.IIRChannel, ptr %9, i64 %indvars.iv
  %11 = getelementptr inbounds nuw i8, ptr %10, i64 8
  tail call void @av_freep(ptr noundef nonnull %11) #14
  %12 = getelementptr inbounds nuw i8, ptr %10, i64 16
  tail call void @av_freep(ptr noundef nonnull %12) #14
  %13 = getelementptr inbounds nuw i8, ptr %10, i64 32
  tail call void @av_freep(ptr noundef nonnull %13) #14
  %14 = getelementptr inbounds nuw i8, ptr %10, i64 40
  tail call void @av_freep(ptr noundef nonnull %14) #14
  %15 = getelementptr inbounds nuw i8, ptr %10, i64 56
  tail call void @av_freep(ptr noundef nonnull %15) #14
  %indvars.iv.next = add nuw nsw i64 %indvars.iv, 1
  %16 = load i32, ptr %6, align 8, !tbaa !35
  %17 = sext i32 %16 to i64
  %18 = icmp slt i64 %indvars.iv.next, %17
  br i1 %18, label %.lr.ph, label %.loopexit, !llvm.loop !36

.loopexit:                                        ; preds = %.lr.ph, %.preheader, %1
  tail call void @av_freep(ptr noundef nonnull %4) #14
  %19 = getelementptr inbounds nuw i8, ptr %3, i64 96
  tail call void @av_frame_free(ptr noundef nonnull %19) #14
  ret void
}